; ModuleID = '6/2758.c'
source_filename = "6/2758.c"
target datalayout = "e-m:e-p270:32:32-p271:32:32-p272:64:64-i64:64-f80:128-n8:16:32:64-S128"
target triple = "x86_64-pc-linux-gnu"

@.str = private unnamed_addr constant [3 x i8] c"%d\00", align 1
@.str.1 = private unnamed_addr constant [6 x i8] c"%d %d\00", align 1
@.str.2 = private unnamed_addr constant [4 x i8] c"%d\0A\00", align 1

; Function Attrs: noinline nounwind uwtable
define dso_local i32 @main() #0 {
  %1 = alloca i32, align 4
  %2 = alloca i32, align 4
  %3 = alloca [100000 x i32], align 16
  %4 = alloca i32, align 4
  %5 = alloca i32, align 4
  %6 = alloca i32, align 4
  %7 = alloca [100 x [100 x i32]], align 16
  %8 = alloca i32, align 4
  %9 = alloca i32, align 4
  %10 = alloca i32, align 4
  %11 = alloca i32, align 4
  store i32 0, i32* %1, align 4
  %12 = call i32 (i8*, ...) @__isoc99_scanf(i8* getelementptr inbounds ([3 x i8], [3 x i8]* @.str, i64 0, i64 0), i32* %2)
  store i32 0, i32* %4, align 4
  br label %13

13:                                               ; preds = %157, %0
  %14 = load i32, i32* %4, align 4
  %15 = load i32, i32* %2, align 4
  %16 = icmp slt i32 %14, %15
  br i1 %16, label %17, label %160

17:                                               ; preds = %13
  %18 = call i32 (i8*, ...) @__isoc99_scanf(i8* getelementptr inbounds ([6 x i8], [6 x i8]* @.str.1, i64 0, i64 0), i32* %5, i32* %6)
  store i32 0, i32* %8, align 4
  br label %19

19:                                               ; preds = %40, %17
  %20 = load i32, i32* %8, align 4
  %21 = load i32, i32* %5, align 4
  %22 = icmp slt i32 %20, %21
  br i1 %22, label %23, label %43

23:                                               ; preds = %19
  store i32 0, i32* %9, align 4
  br label %24

24:                                               ; preds = %36, %23
  %25 = load i32, i32* %9, align 4
  %26 = load i32, i32* %6, align 4
  %27 = icmp slt i32 %25, %26
  br i1 %27, label %28, label %39

28:                                               ; preds = %24
  %29 = load i32, i32* %8, align 4
  %30 = sext i32 %29 to i64
  %31 = getelementptr inbounds [100 x [100 x i32]], [100 x [100 x i32]]* %7, i64 0, i64 %30
  %32 = load i32, i32* %9, align 4
  %33 = sext i32 %32 to i64
  %34 = getelementptr inbounds [100 x i32], [100 x i32]* %31, i64 0, i64 %33
  %35 = call i32 (i8*, ...) @__isoc99_scanf(i8* getelementptr inbounds ([3 x i8], [3 x i8]* @.str, i64 0, i64 0), i32* %34)
  br label %36

36:                                               ; preds = %28
  %37 = load i32, i32* %9, align 4
  %38 = add nsw i32 %37, 1
  store i32 %38, i32* %9, align 4
  br label %24

39:                                               ; preds = %24
  br label %40

40:                                               ; preds = %39
  %41 = load i32, i32* %8, align 4
  %42 = add nsw i32 %41, 1
  store i32 %42, i32* %8, align 4
  br label %19

43:                                               ; preds = %19
  %44 = load i32, i32* %5, align 4
  %45 = load i32, i32* %6, align 4
  %46 = mul nsw i32 %44, %45
  %47 = icmp ne i32 %46, 1
  br i1 %47, label %48, label %151

48:                                               ; preds = %43
  store i32 0, i32* %10, align 4
  br label %49

49:                                               ; preds = %76, %48
  %50 = load i32, i32* %10, align 4
  %51 = load i32, i32* %6, align 4
  %52 = icmp slt i32 %50, %51
  br i1 %52, label %53, label %79

53:                                               ; preds = %49
  %54 = load i32, i32* %4, align 4
  %55 = sext i32 %54 to i64
  %56 = getelementptr inbounds [100000 x i32], [100000 x i32]* %3, i64 0, i64 %55
  %57 = load i32, i32* %56, align 4
  %58 = getelementptr inbounds [100 x [100 x i32]], [100 x [100 x i32]]* %7, i64 0, i64 0
  %59 = load i32, i32* %10, align 4
  %60 = sext i32 %59 to i64
  %61 = getelementptr inbounds [100 x i32], [100 x i32]* %58, i64 0, i64 %60
  %62 = load i32, i32* %61, align 4
  %63 = add nsw i32 %57, %62
  %64 = load i32, i32* %5, align 4
  %65 = sub nsw i32 %64, 1
  %66 = sext i32 %65 to i64
  %67 = getelementptr inbounds [100 x [100 x i32]], [100 x [100 x i32]]* %7, i64 0, i64 %66
  %68 = load i32, i32* %10, align 4
  %69 = sext i32 %68 to i64
  %70 = getelementptr inbounds [100 x i32], [100 x i32]* %67, i64 0, i64 %69
  %71 = load i32, i32* %70, align 4
  %72 = add nsw i32 %63, %71
  %73 = load i32, i32* %4, align 4
  %74 = sext i32 %73 to i64
  %75 = getelementptr inbounds [100000 x i32], [100000 x i32]* %3, i64 0, i64 %74
  store i32 %72, i32* %75, align 4
  br label %76

76:                                               ; preds = %53
  %77 = load i32, i32* %10, align 4
  %78 = add nsw i32 %77, 1
  store i32 %78, i32* %10, align 4
  br label %49

79:                                               ; preds = %49
  store i32 0, i32* %11, align 4
  br label %80

80:                                               ; preds = %107, %79
  %81 = load i32, i32* %11, align 4
  %82 = load i32, i32* %5, align 4
  %83 = icmp slt i32 %81, %82
  br i1 %83, label %84, label %110

84:                                               ; preds = %80
  %85 = load i32, i32* %4, align 4
  %86 = sext i32 %85 to i64
  %87 = getelementptr inbounds [100000 x i32], [100000 x i32]* %3, i64 0, i64 %86
  %88 = load i32, i32* %87, align 4
  %89 = load i32, i32* %11, align 4
  %90 = sext i32 %89 to i64
  %91 = getelementptr inbounds [100 x [100 x i32]], [100 x [100 x i32]]* %7, i64 0, i64 %90
  %92 = getelementptr inbounds [100 x i32], [100 x i32]* %91, i64 0, i64 0
  %93 = load i32, i32* %92, align 16
  %94 = add nsw i32 %88, %93
  %95 = load i32, i32* %11, align 4
  %96 = sext i32 %95 to i64
  %97 = getelementptr inbounds [100 x [100 x i32]], [100 x [100 x i32]]* %7, i64 0, i64 %96
  %98 = load i32, i32* %6, align 4
  %99 = sub nsw i32 %98, 1
  %100 = sext i32 %99 to i64
  %101 = getelementptr inbounds [100 x i32], [100 x i32]* %97, i64 0, i64 %100
  %102 = load i32, i32* %101, align 4
  %103 = add nsw i32 %94, %102
  %104 = load i32, i32* %4, align 4
  %105 = sext i32 %104 to i64
  %106 = getelementptr inbounds [100000 x i32], [100000 x i32]* %3, i64 0, i64 %105
  store i32 %103, i32* %106, align 4
  br label %107

107:                                              ; preds = %84
  %108 = load i32, i32* %11, align 4
  %109 = add nsw i32 %108, 1
  store i32 %109, i32* %11, align 4
  br label %80

110:                                              ; preds = %80
  %111 = load i32, i32* %4, align 4
  %112 = sext i32 %111 to i64
  %113 = getelementptr inbounds [100000 x i32], [100000 x i32]* %3, i64 0, i64 %112
  %114 = load i32, i32* %113, align 4
  %115 = getelementptr inbounds [100 x [100 x i32]], [100 x [100 x i32]]* %7, i64 0, i64 0
  %116 = getelementptr inbounds [100 x i32], [100 x i32]* %115, i64 0, i64 0
  %117 = load i32, i32* %116, align 16
  %118 = sub nsw i32 %114, %117
  %119 = load i32, i32* %5, align 4
  %120 = sub nsw i32 %119, 1
  %121 = sext i32 %120 to i64
  %122 = getelementptr inbounds [100 x [100 x i32]], [100 x [100 x i32]]* %7, i64 0, i64 %121
  %123 = getelementptr inbounds [100 x i32], [100 x i32]* %122, i64 0, i64 0
  %124 = load i32, i32* %123, align 16
  %125 = sub nsw i32 %118, %124
  %126 = load i32, i32* %5, align 4
  %127 = sub nsw i32 %126, 1
  %128 = sext i32 %127 to i64
  %129 = getelementptr inbounds [100 x [100 x i32]], [100 x [100 x i32]]* %7, i64 0, i64 %128
  %130 = load i32, i32* %6, align 4
  %131 = sub nsw i32 %130, 1
  %132 = sext i32 %131 to i64
  %133 = getelementptr inbounds [100 x i32], [100 x i32]* %129, i64 0, i64 %132
  %134 = load i32, i32* %133, align 4
  %135 = sub nsw i32 %125, %134
  %136 = getelementptr inbounds [100 x [100 x i32]], [100 x [100 x i32]]* %7, i64 0, i64 0
  %137 = load i32, i32* %6, align 4
  %138 = sub nsw i32 %137, 1
  %139 = sext i32 %138 to i64
  %140 = getelementptr inbounds [100 x i32], [100 x i32]* %136, i64 0, i64 %139
  %141 = load i32, i32* %140, align 4
  %142 = sub nsw i32 %135, %141
  %143 = load i32, i32* %4, align 4
  %144 = sext i32 %143 to i64
  %145 = getelementptr inbounds [100000 x i32], [100000 x i32]* %3, i64 0, i64 %144
  store i32 %142, i32* %145, align 4
  %146 = load i32, i32* %4, align 4
  %147 = sext i32 %146 to i64
  %148 = getelementptr inbounds [100000 x i32], [100000 x i32]* %3, i64 0, i64 %147
  %149 = load i32, i32* %148, align 4
  %150 = call i32 (i8*, ...) @printf(i8* getelementptr inbounds ([4 x i8], [4 x i8]* @.str.2, i64 0, i64 0), i32 %149)
  br label %156

151:                                              ; preds = %43
  %152 = getelementptr inbounds [100 x [100 x i32]], [100 x [100 x i32]]* %7, i64 0, i64 0
  %153 = getelementptr inbounds [100 x i32], [100 x i32]* %152, i64 0, i64 0
  %154 = load i32, i32* %153, align 16
  %155 = call i32 (i8*, ...) @printf(i8* getelementptr inbounds ([3 x i8], [3 x i8]* @.str, i64 0, i64 0), i32 %154)
  br label %156

156:                                              ; preds = %151, %110
  br label %157

157:                                              ; preds = %156
  %158 = load i32, i32* %4, align 4
  %159 = add nsw i32 %158, 1
  store i32 %159, i32* %4, align 4
  br label %13

160:                                              ; preds = %13
  ret i32 0
}

declare dso_local i32 @__isoc99_scanf(i8*, ...) #1

declare dso_local i32 @printf(i8*, ...) #1


!llvm.module.flags = !{!0}
!llvm.ident = !{!1}

!0 = !{i32 1, !"wchar_size", i32 4}
!1 = !{!"clang version 10.0.0-4ubuntu1 "}
